target datalayout = "e-m:e-p270:32:32-p271:32:32-p272:64:64-i64:64-i128:128-f80:128-n8:16:32:64-S128"
target triple = "x86_64-pc-linux-gnu"

%struct._zval_struct = type { %union._zend_value, %union.anon.0, %union.anon.3 }
%union._zend_value = type { i64 }
%union.anon.0 = type { i32 }
%union.anon.3 = type { i32 }
%struct._zend_refcounted_h = type { i32, %union.anon }
%union.anon = type { i32 }
%struct._zend_string = type { %struct._zend_refcounted_h, i64, i64, [1 x i8] }
%struct._xmlNode = type { ptr, i32, ptr, ptr, ptr, ptr, ptr, ptr, ptr, ptr, ptr, ptr, ptr, ptr, i16, i16 }
%struct._dom_object = type { ptr, ptr, ptr, %struct._zend_object }
%struct._zend_object = type { %struct._zend_refcounted_h, i32, ptr, ptr, ptr, [1 x %struct._zval_struct] }
%struct._php_libxml_ref_obj = type { ptr, ptr, %struct.php_libxml_cache_tag, i32, i8 }
%struct.php_libxml_cache_tag = type { i64 }

; Function Attrs: nounwind uwtable
define hidden i32 @dom_node_text_content_write(ptr noundef %0, ptr noundef %1) #0 {
  %3 = alloca ptr, align 8
  %4 = alloca i32, align 4
  %5 = alloca ptr, align 8
  %6 = alloca ptr, align 8
  %7 = alloca ptr, align 8
  %8 = alloca ptr, align 8
  %9 = alloca i32, align 4
  %10 = alloca ptr, align 8
  store ptr %0, ptr %5, align 8
  store ptr %1, ptr %6, align 8
  %11 = load ptr, ptr %5, align 8
  %12 = call ptr @dom_object_get_node(ptr noundef %11)
  store ptr %12, ptr %7, align 8
  %13 = load ptr, ptr %7, align 8
  %14 = icmp eq ptr %13, null
  br i1 %14, label %15, label %16

15:                                               ; preds = %2
  call void @php_dom_throw_error(i32 noundef 11, i32 noundef 1)
  store i32 -1, ptr %4, align 4
  br label %56

16:                                               ; preds = %2
  %17 = load ptr, ptr %5, align 8
  %18 = getelementptr inbounds %struct._dom_object, ptr %17, i32 0, i32 1
  %19 = load ptr, ptr %18, align 8
  store ptr %19, ptr %3, align 8
  %20 = load ptr, ptr %3, align 8
  %21 = icmp ne ptr %20, null
  br i1 %21, label %23, label %22

22:                                               ; preds = %16
  br label %28

23:                                               ; preds = %16
  %24 = load ptr, ptr %3, align 8
  %25 = getelementptr inbounds %struct._php_libxml_ref_obj, ptr %24, i32 0, i32 2
  %26 = load i64, ptr %25, align 8
  %27 = add i64 %26, 1
  store i64 %27, ptr %25, align 8
  br label %28

28:                                               ; preds = %23, %22
  %29 = load ptr, ptr %6, align 8
  %30 = getelementptr inbounds %struct._zval_struct, ptr %29, i32 0, i32 0
  %31 = load ptr, ptr %30, align 8
  %32 = getelementptr inbounds %struct._zend_string, ptr %31, i32 0, i32 3
  %33 = getelementptr inbounds [1 x i8], ptr %32, i64 0, i64 0
  store ptr %33, ptr %8, align 8
  %34 = load ptr, ptr %7, align 8
  %35 = getelementptr inbounds %struct._xmlNode, ptr %34, i32 0, i32 1
  %36 = load i32, ptr %35, align 8
  store i32 %36, ptr %9, align 4
  %37 = load i32, ptr %9, align 4
  %38 = icmp eq i32 %37, 11
  br i1 %38, label %45, label %39

39:                                               ; preds = %28
  %40 = load i32, ptr %9, align 4
  %41 = icmp eq i32 %40, 1
  br i1 %41, label %45, label %42

42:                                               ; preds = %39
  %43 = load i32, ptr %9, align 4
  %44 = icmp eq i32 %43, 2
  br i1 %44, label %45, label %52

45:                                               ; preds = %42, %39, %28
  %46 = load ptr, ptr %7, align 8
  call void @dom_remove_all_children(ptr noundef %46)
  %47 = load ptr, ptr %8, align 8
  %48 = call ptr @xmlNewText(ptr noundef %47)
  store ptr %48, ptr %10, align 8
  %49 = load ptr, ptr %7, align 8
  %50 = load ptr, ptr %10, align 8
  %51 = call ptr @xmlAddChild(ptr noundef %49, ptr noundef %50)
  br label %55

52:                                               ; preds = %42
  %53 = load ptr, ptr %7, align 8
  %54 = load ptr, ptr %8, align 8
  call void @xmlNodeSetContent(ptr noundef %53, ptr noundef %54)
  br label %55

55:                                               ; preds = %52, %45
  store i32 0, ptr %4, align 4
  br label %56

56:                                               ; preds = %55, %15
  %57 = load i32, ptr %4, align 4
  ret i32 %57
}