; Function Attrs: nounwind uwtable
define hidden noundef i32 @dom_node_text_content_write(ptr noundef %0, ptr nocapture noundef readonly %1) local_unnamed_addr #0 {
  %3 = tail call ptr @dom_object_get_node(ptr noundef %0) #12
  %4 = icmp eq ptr %3, null
  br i1 %4, label %5, label %6

5:                                                ; preds = %2
  tail call void @php_dom_throw_error(i32 noundef 11, i32 noundef 1) #12
  br label %22

6:                                                ; preds = %2
  %7 = getelementptr inbounds i8, ptr %0, i64 8
  %8 = load ptr, ptr %7, align 8
  %.not = icmp eq ptr %8, null
  br i1 %.not, label %13, label %9

9:                                                ; preds = %6
  %10 = getelementptr inbounds i8, ptr %8, i64 16
  %11 = load i64, ptr %10, align 8
  %12 = add i64 %11, 1
  store i64 %12, ptr %10, align 8
  br label %13

13:                                               ; preds = %6, %9
  %14 = load ptr, ptr %1, align 8
  %15 = getelementptr inbounds i8, ptr %14, i64 24
  %16 = getelementptr inbounds i8, ptr %3, i64 8
  %17 = load i32, ptr %16, align 8
  switch i32 %17, label %21 [
    i32 11, label %18
    i32 2, label %18
    i32 1, label %18
  ]

18:                                               ; preds = %13, %13, %13
  tail call void @dom_remove_all_children(ptr noundef nonnull %3) #12
  %19 = tail call ptr @xmlNewText(ptr noundef nonnull %15) #12
  %20 = tail call ptr @xmlAddChild(ptr noundef nonnull %3, ptr noundef %19) #12
  br label %22

21:                                               ; preds = %13
  tail call void @xmlNodeSetContent(ptr noundef nonnull %3, ptr noundef nonnull %15) #12
  br label %22

22:                                               ; preds = %18, %21, %5
  %.0 = phi i32 [ -1, %5 ], [ 0, %21 ], [ 0, %18 ]
  ret i32 %.0
}